; Function Attrs: mustprogress uwtable
define hidden void @_ZN19OpenColorIO_v2_4dev12XmlFormatter15writeContentTagERKNSt7__cxx1112basic_stringIcSt11char_traitsIcESaIcEEES8_(ptr nocapture noundef nonnull readonly align 8 dereferenceable(16) %this, ptr noundef nonnull align 8 dereferenceable(32) %tagName, ptr noundef nonnull align 8 dereferenceable(32) %content) local_unnamed_addr #3 align 2 personality ptr @__gxx_personality_v0 {
entry:
  %atts = alloca %"class.std::vector", align 8
  call void @llvm.memset.p0.i64(ptr noundef nonnull align 8 dereferenceable(24) %atts, i8 0, i64 24, i1 false)
  invoke void @_ZN19OpenColorIO_v2_4dev12XmlFormatter15writeContentTagERKNSt7__cxx1112basic_stringIcSt11char_traitsIcESaIcEEERKSt6vectorISt4pairIS6_S6_ESaISB_EES8_(ptr noundef nonnull align 8 dereferenceable(16) %this, ptr noundef nonnull align 8 dereferenceable(32) %tagName, ptr noundef nonnull align 8 dereferenceable(24) %atts, ptr noundef nonnull align 8 dereferenceable(32) %content)
          to label %_ZNSt6vectorISt4pairINSt7__cxx1112basic_stringIcSt11char_traitsIcESaIcEEES6_ESaIS7_EED2Ev.exit unwind label %lpad

_ZNSt6vectorISt4pairINSt7__cxx1112basic_stringIcSt11char_traitsIcESaIcEEES6_ESaIS7_EED2Ev.exit: ; preds = %entry
  ret void

lpad:                                             ; preds = %entry
  %0 = landingpad { ptr, i32 }
          cleanup
  call void @_ZNSt6vectorISt4pairINSt7__cxx1112basic_stringIcSt11char_traitsIcESaIcEEES6_ESaIS7_EED2Ev(ptr noundef nonnull align 8 dereferenceable(24) %atts) #14
  resume { ptr, i32 } %0
}